(lp1
(i_DipolarRRT
NodeXYT
p2
(dp3
S'pose'
p4
(cnumpy.core.multiarray
scalar
p5
(cnumpy
dtype
p6
(S'i4'
I0
I1
tRp7
(I3
S'<'
NNNI-1
I-1
I0
tbS'\x02\x00\x00\x00'
tRp8
g5
(g7
S'\x02\x00\x00\x00'
tRp9
g5
(g7
S'\x00\x00\x00\x00'
tRp10
tp11
sS'parent'
p12
Nsba(i_DipolarRRT
NodeXYT
p13
(dp14
g4
(g5
(g7
S'\x02\x00\x00\x00'
tRp15
g5
(g7
S'\x01\x00\x00\x00'
tRp16
F-0.40715834113422977
tp17
sg12
g2
sba(i_DipolarRRT
NodeXYT
p18
(dp19
g4
(g5
(g6
(S'f8'
I0
I1
tRp20
(I3
S'<'
NNNI-1
I-1
I0
tbS'\xfel\xc3V \x81\x07@'
tRp21
g5
(g20
S'\xa3\n\xa9\xc7x\xe9\xe4?'
tRp22
F-0.35383740220352394
tp23
sg12
g13
sba(i_DipolarRRT
NodeXYT
p24
(dp25
g4
(g5
(g20
S'\x8a\xa3\xb8\xe5\\\x80\x0f@'
tRp26
g5
(g20
S'j\x8ey\xdd\xcf\t\xe4?'
tRp27
F-0.027305617571339983
tp28
sg12
g18
sba(i_DipolarRRT
NodeXYT
p29
(dp30
g4
(g5
(g20
S'\x0b\xedV\xba\xcc\xbf\x13@'
tRp31
g5
(g20
S'1\x12J\xf3&*\xe3?'
tRp32
F-0.027305617571339983
tp33
sg12
g24
sba(i_DipolarRRT
NodeXYT
p34
(dp35
g4
(F5.0547952729911003
F0.59568656802256514
F0.26592067904296712
tp36
sg12
g29
sba(i_DipolarRRT
NodeXYT
p37
(dp38
g4
(g5
(g20
S'\xe0nm)P\x86\x17@'
tRp39
g5
(g20
S'\xfc\xaa\x0f\xd2\x80\x8a\xf2?'
tRp40
F0.59816579664804548
tp41
sg12
g34
sba(i_DipolarRRT
NodeXYT
p42
(dp43
g4
(g5
(g20
S'@\xfaT\x12\x84\xd4\x1a@'
tRp44
g5
(g20
S'V)\x9a\x00\x13\x8d\xfb?'
tRp45
F0.59816579664804548
tp46
sg12
g37
sba(i_DipolarRRT
NodeXYT
p47
(dp48
g4
(g5
(g20
S'\xa0\x85<\xfb\xb7"\x1e@'
tRp49
g5
(g20
S'\xd8S\x92\x97\xd2G\x02@'
tRp50
F0.59816579664804548
tp51
sg12
g42
sba(i_DipolarRRT
NodeXYT
p52
(dp53
g4
(F7.6465445732336974
F2.3618276241544724
F0.44126465019068872
tp54
sg12
g47
sba(i_DipolarRRT
NodeXYT
p55
(dp56
g4
(g5
(g20
S'\x8d\x99\xdeSc\x87 @'
tRp57
g5
(g20
S'\xdc\x82\x18\x98}5\xf9?'
tRp58
F-0.90474625521011565
tp59
sg12
g52
sba(i_DipolarRRT
NodeXYT
p60
(dp61
g4
(g5
(g20
S'BO\xd2\xc3\xbe\xc3!@'
tRp62
g5
(g20
S'l\xfe\xd0\xd9\xdeA\xe9?'
tRp63
F-0.90474625521011565
tp64
sg12
g55
sba(i_DipolarRRT
NodeXYT
p65
(dp66
g4
(g5
(g20
S'\xca\x92\xf3Tx\xd5"@'
tRp67
g5
(g20
S'\xd8\x83\xb1\xf3o&\xfa?'
tRp68
F1.0067396141272396
tp69
sg12
g60
sba(i_DipolarRRT
NodeXYT
p70
(dp71
g4
(F9.5366593866289673
F1.8236392748480346
F-2.5644507483953785
tp72
sg12
g65
sba(i_DipolarRRT
NodeXYT
p73
(dp74
g4
(g5
(g20
S'\x13f\x8b!\x8b\xd3$@'
tRp75
g5
(g20
S'\x8a\x97\xbd\xd8\xe3y\xf5?'
tRp76
F-0.50222955927953139
tp77
sg12
g70
sba(i_DipolarRRT
NodeXYT
p78
(dp79
g4
(g5
(g20
S'\xc7x1>Q\x94&@'
tRp80
g5
(g20
S'#\xd1P\xa2N\x8c\xeb?'
tRp81
F-0.50222955927953139
tp82
sg12
g73
sba(i_DipolarRRT
NodeXYT
p83
(dp84
g4
(g5
(g20
S'{\x8b\xd7Z\x17U(@'
tRp85
g5
(g20
S'd\xe6L&\xabI\xd8?'
tRp86
F-0.50222955927953139
tp87
sg12
g78
sba(i_DipolarRRT
NodeXYT
p88
(dp89
g4
(g5
(g20
S'\x00\xfdK\xfeTR%@'
tRp90
g5
(g20
S'\xbe\xf0\x19J(}\x02@'
tRp91
F1.3205590659877466
tp92
sg12
g73
sba(i_DipolarRRT
NodeXYT
p93
(dp94
g4
(F10.88094546546132
F3.1724005831037791
F2.9703578732792684
tp95
sg12
g88
sba(i_DipolarRRT
NodeXYT
p96
(dp97
g4
(g5
(g20
S'(\xee\x0c\xd5\x99\x91(@'
tRp98
g5
(g20
S'e\x8f\xb12\x0c\xd7\xee?'
tRp99
F0.10305591535924837
tp100
sg12
g78
sba(i_DipolarRRT
NodeXYT
p101
(dp102
g4
(g5
(g20
S'\x89c\xe8k\xe2\x8e*@'
tRp103
g5
(g20
S'\xd3&\x89\xe1\xe4\x10\xf1?'
tRp104
F0.10305591535924837
tp105
sg12
g96
sba(i_DipolarRRT
NodeXYT
p106
(dp107
g4
(g5
(g20
S'\xea\xd8\xc3\x02+\x8c,@'
tRp108
g5
(g20
S'\xf4\x85\xb9\xa9C\xb6\xf2?'
tRp109
F0.10305591535924837
tp110
sg12
g101
sba(i_DipolarRRT
NodeXYT
p111
(dp112
g4
(g5
(g20
S'KN\x9f\x99s\x89.@'
tRp113
g5
(g20
S'\x15\xe5\xe9q\xa2[\xf4?'
tRp114
F0.10305591535924837
tp115
sg12
g106
sba(i_DipolarRRT
NodeXYT
p116
(dp117
g4
(g5
(g20
S"\x1b\x94\xad\xa5\xac\x99'@"
tRp118
g5
(g20
S'\xfcy\xc4y\x97:\x06@'
tRp119
F-0.40475259057878238
tp120
sg12
g93
sba(i_DipolarRRT
NodeXYT
p121
(dp122
g4
(F12.029323045967288
F2.6804279608922745
F3.0144685720479396
tp123
sg12
g116
sba(i_DipolarRRT
NodeXYT
p124
(dp125
g4
(F7.4471180844140754
F1.2385386471486388
F3.0977623294775132
tp126
sg12
g42
sba(i_DipolarRRT
NodeXYT
p127
(dp128
g4
(F5.148524067285992
F1.7207063549165258
F0.51239713247383145
tp129
sg12
g37
sba(i_DipolarRRT
NodeXYT
p130
(dp131
g4
(F1.9600812518037198
F1.6371821861289941
F-0.56521293420224117
tp132
sg12
g2
sba(i_DipolarRRT
NodeXYT
p133
(dp134
g4
(g5
(g20
S'\r\xa2\xa2b6\xb7,@'
tRp135
g5
(g20
S'4\xfc\xc2\n\x1f&\xc6?'
tRp136
F-1.4866258197281559
tp137
sg12
g106
sba(i_DipolarRRT
NodeXYT
p138
(dp139
g4
(g5
(g20
S'0k\x81\xc2A\xe2,@'
tRp140
g5
(g20
S'\xce\x8d\x11\xcewY\xea\xbf'
tRp141
F-1.4866258197281559
tp142
sg12
g133
sba(i_DipolarRRT
NodeXYT
p143
(dp144
g4
(g5
(g20
S'S4`"M\r-@'
tRp145
g5
(g20
S'T\xedi\xaf;\x1e\xfd\xbf'
tRp146
F-1.4866258197281559
tp147
sg12
g138
sba(i_DipolarRRT
NodeXYT
p148
(dp149
g4
(g5
(g20
S'v\xfd>\x82X8-@'
tRp150
g5
(g20
S'\xe1\x89\xe5\xbb\xdd\x87\x06\xc0'
tRp151
F-1.4866258197281559
tp152
sg12
g143
sba(i_DipolarRRT
NodeXYT
p153
(dp154
g4
(g5
(g20
S'\x99\xc6\x1d\xe2cc-@'
tRp155
g5
(g20
S'\x18\x1d\x16\xa0\x9d\x80\x0e\xc0'
tRp156
F-1.4866258197281559
tp157
sg12
g148
sba(i_DipolarRRT
NodeXYT
p158
(dp159
g4
(g5
(g20
S'\xbc\x8f\xfcAo\x8e-@'
tRp160
g5
(g20
S"'X#\xc2\xae<\x13\xc0"
tRp161
F-1.4866258197281559
tp162
sg12
g153
sba(i_DipolarRRT
NodeXYT
p163
(dp164
g4
(g5
(g20
S'\xdfX\xdb\xa1z\xb9-@'
tRp165
g5
(g20
S'\xc2\xa1;\xb4\x0e9\x17\xc0'
tRp166
F-1.4866258197281559
tp167
sg12
g158
sba(i_DipolarRRT
NodeXYT
p168
(dp169
g4
(g5
(g20
S'\x02"\xba\x01\x86\xe4-@'
tRp170
g5
(g20
S']\xebS\xa6n5\x1b\xc0'
tRp171
F-1.4866258197281559
tp172
sg12
g163
sba(i_DipolarRRT
NodeXYT
p173
(dp174
g4
(g5
(g20
S'%\xeb\x98a\x91\x0f.@'
tRp175
g5
(g20
S'\xf84l\x98\xce1\x1f\xc0'
tRp176
F-1.4866258197281559
tp177
sg12
g168
sba(i_DipolarRRT
NodeXYT
p178
(dp179
g4
(g5
(g20
S'H\xb4w\xc1\x9c:.@'
tRp180
g5
(g20
S'J?BE\x17\x97!\xc0'
tRp181
F-1.4866258197281559
tp182
sg12
g173
sba(i_DipolarRRT
NodeXYT
p183
(dp184
g4
(F15.175806874190069
F-9.5220140192536675
F2.1617155571233768
tp185
sg12
g178
sba(i_DipolarRRT
NodeXYT
p186
(dp187
g4
(F9.3037164213204235
F1.2256127021339154
F-1.2036407473470798
tp188
sg12
g65
sba(i_DipolarRRT
NodeXYT
p189
(dp190
g4
(g5
(g20
S'\xda35\x0f\xf4\x90,@'
tRp191
g5
(g20
S'T\xc9\x04\x8b\x02\xf2#\xc0'
tRp192
F-2.6740862898308482
tp193
sg12
g183
sba(i_DipolarRRT
NodeXYT
p194
(dp195
g4
(g5
(g20
S'\xd6I\x9c\xc2\xe4\xc7*@'
tRp196
g5
(g20
S'\xac\x13 \xaa\xbf\xd8$\xc0'
tRp197
F-2.6740862898308482
tp198
sg12
g189
sba(i_DipolarRRT
NodeXYT
p199
(dp200
g4
(F12.769133830656001
F-10.736981490562464
F-0.46044872150730498
tp201
sg12
g194
sba(i_DipolarRRT
NodeXYT
p202
(dp203
g4
(g5
(g20
S'>\xf8\xf8G.\x00\x11@'
tRp204
g5
(g20
S'>\xfa\xfb\xcc\xa9G\x01@'
tRp205
F2.6867895031497198
tp206
sg12
g127
sba(i_DipolarRRT
NodeXYT
p207
(dp208
g4
(F4.0584264625966338
F2.2537562524338144
F1.4055064095140022
tp209
sg12
g202
sba(i_DipolarRRT
NodeXYT
p210
(dp211
g4
(F11.542902845048772
F2.8262188201205856
F1.3312697814987091
tp212
sg12
g121
sba(i_DipolarRRT
NodeXYT
p213
(dp214
g4
(F14.790208850171304
F-7.130940350920798
F-0.39266127290974218
tp215
sg12
g168
sba.